; Function Attrs: mustprogress nofree norecurse nounwind willreturn memory(argmem: readwrite) uwtable
define internal noundef i32 @evp_cipher_up_ref(ptr noundef captures(none) %0) #8 {
  %2 = getelementptr inbounds nuw i8, ptr %0, i64 24
  %3 = load i32, ptr %2, align 8, !tbaa !20
  %4 = icmp eq i32 %3, 0
  br i1 %4, label %5, label %EVP_CIPHER_up_ref.exit

5:                                                ; preds = %1
  %6 = getelementptr inbounds nuw i8, ptr %0, i64 128
  %7 = atomicrmw add ptr %6, i32 1 monotonic, align 4
  br label %EVP_CIPHER_up_ref.exit

EVP_CIPHER_up_ref.exit:                           ; preds = %1, %5
  ret i32 1
}